target datalayout = "e-m:e-p270:32:32-p271:32:32-p272:64:64-i64:64-i128:128-f80:128-n8:16:32:64-S128"
target triple = "x86_64-pc-linux-gnu"

; Function Attrs: nounwind uwtable
define void @Abc_ConvertSopToBdd2Count(ptr noundef %0, i32 noundef %1, i32 noundef %2, i32 noundef %3, ptr noundef %4) #0 {
  %6 = alloca ptr, align 8
  %7 = alloca i32, align 4
  %8 = alloca i32, align 4
  %9 = alloca i32, align 4
  %10 = alloca ptr, align 8
  %11 = alloca i32, align 4
  store ptr %0, ptr %6, align 8, !tbaa !3
  store i32 %1, ptr %7, align 4, !tbaa !8
  store i32 %2, ptr %8, align 4, !tbaa !8
  store i32 %3, ptr %9, align 4, !tbaa !8
  store ptr %4, ptr %10, align 8, !tbaa !10
  call void @llvm.lifetime.start.p0(i64 4, ptr %11) #10
  store i32 0, ptr %11, align 4, !tbaa !8
  br label %12

12:                                               ; preds = %71, %5
  %13 = load i32, ptr %11, align 4, !tbaa !8
  %14 = load i32, ptr %7, align 4, !tbaa !8
  %15 = icmp slt i32 %13, %14
  br i1 %15, label %16, label %74

16:                                               ; preds = %12
  %17 = load ptr, ptr %6, align 8, !tbaa !3
  %18 = load i32, ptr %11, align 4, !tbaa !8
  %19 = load i32, ptr %8, align 4, !tbaa !8
  %20 = mul nsw i32 %18, %19
  %21 = load i32, ptr %9, align 4, !tbaa !8
  %22 = add nsw i32 %20, %21
  %23 = sext i32 %22 to i64
  %24 = getelementptr inbounds i8, ptr %17, i64 %23
  %25 = load i8, ptr %24, align 1, !tbaa !12
  %26 = sext i8 %25 to i32
  %27 = icmp eq i32 %26, 45
  br i1 %27, label %28, label %33

28:                                               ; preds = %16
  %29 = load ptr, ptr %10, align 8, !tbaa !10
  %30 = getelementptr inbounds i32, ptr %29, i64 0
  %31 = load i32, ptr %30, align 4, !tbaa !8
  %32 = add nsw i32 %31, 1
  store i32 %32, ptr %30, align 4, !tbaa !8
  br label %70

33:                                               ; preds = %16
  %34 = load ptr, ptr %6, align 8, !tbaa !3
  %35 = load i32, ptr %11, align 4, !tbaa !8
  %36 = load i32, ptr %8, align 4, !tbaa !8
  %37 = mul nsw i32 %35, %36
  %38 = load i32, ptr %9, align 4, !tbaa !8
  %39 = add nsw i32 %37, %38
  %40 = sext i32 %39 to i64
  %41 = getelementptr inbounds i8, ptr %34, i64 %40
  %42 = load i8, ptr %41, align 1, !tbaa !12
  %43 = sext i8 %42 to i32
  %44 = icmp eq i32 %43, 48
  br i1 %44, label %45, label %50

45:                                               ; preds = %33
  %46 = load ptr, ptr %10, align 8, !tbaa !10
  %47 = getelementptr inbounds i32, ptr %46, i64 1
  %48 = load i32, ptr %47, align 4, !tbaa !8
  %49 = add nsw i32 %48, 1
  store i32 %49, ptr %47, align 4, !tbaa !8
  br label %69

50:                                               ; preds = %33
  %51 = load ptr, ptr %6, align 8, !tbaa !3
  %52 = load i32, ptr %11, align 4, !tbaa !8
  %53 = load i32, ptr %8, align 4, !tbaa !8
  %54 = mul nsw i32 %52, %53
  %55 = load i32, ptr %9, align 4, !tbaa !8
  %56 = add nsw i32 %54, %55
  %57 = sext i32 %56 to i64
  %58 = getelementptr inbounds i8, ptr %51, i64 %57
  %59 = load i8, ptr %58, align 1, !tbaa !12
  %60 = sext i8 %59 to i32
  %61 = icmp eq i32 %60, 49
  br i1 %61, label %62, label %67

62:                                               ; preds = %50
  %63 = load ptr, ptr %10, align 8, !tbaa !10
  %64 = getelementptr inbounds i32, ptr %63, i64 2
  %65 = load i32, ptr %64, align 4, !tbaa !8
  %66 = add nsw i32 %65, 1
  store i32 %66, ptr %64, align 4, !tbaa !8
  br label %68

67:                                               ; preds = %50
  br label %68

68:                                               ; preds = %67, %62
  br label %69

69:                                               ; preds = %68, %45
  br label %70

70:                                               ; preds = %69, %28
  br label %71

71:                                               ; preds = %70
  %72 = load i32, ptr %11, align 4, !tbaa !8
  %73 = add nsw i32 %72, 1
  store i32 %73, ptr %11, align 4, !tbaa !8
  br label %12, !llvm.loop !13

74:                                               ; preds = %12
  call void @llvm.lifetime.end.p0(i64 4, ptr %11) #10
  ret void
}