; Function Attrs: nofree norecurse nosync nounwind memory(argmem: readwrite) uwtable
define void @Abc_ConvertSopToBdd2Count(ptr noundef readonly captures(none) %0, i32 noundef %1, i32 noundef %2, i32 noundef %3, ptr noundef captures(none) %4) local_unnamed_addr #0 {
  %6 = icmp sgt i32 %1, 0
  br i1 %6, label %.lr.ph, label %._crit_edge

.lr.ph:                                           ; preds = %5
  %7 = getelementptr inbounds nuw i8, ptr %4, i64 8
  %8 = getelementptr inbounds nuw i8, ptr %4, i64 4
  %9 = sext i32 %2 to i64
  %10 = sext i32 %3 to i64
  %wide.trip.count = zext nneg i32 %1 to i64
  %invariant.gep = getelementptr i8, ptr %0, i64 %10
  br label %11

11:                                               ; preds = %.lr.ph, %23
  %indvars.iv = phi i64 [ 0, %.lr.ph ], [ %indvars.iv.next, %23 ]
  %12 = mul nsw i64 %indvars.iv, %9
  %gep = getelementptr i8, ptr %invariant.gep, i64 %12
  %13 = load i8, ptr %gep, align 1, !tbaa !3
  switch i8 %13, label %23 [
    i8 45, label %14
    i8 48, label %17
    i8 49, label %20
  ]

14:                                               ; preds = %11
  %15 = load i32, ptr %4, align 4, !tbaa !6
  %16 = add nsw i32 %15, 1
  store i32 %16, ptr %4, align 4, !tbaa !6
  br label %23

17:                                               ; preds = %11
  %18 = load i32, ptr %8, align 4, !tbaa !6
  %19 = add nsw i32 %18, 1
  store i32 %19, ptr %8, align 4, !tbaa !6
  br label %23

20:                                               ; preds = %11
  %21 = load i32, ptr %7, align 4, !tbaa !6
  %22 = add nsw i32 %21, 1
  store i32 %22, ptr %7, align 4, !tbaa !6
  br label %23

23:                                               ; preds = %11, %14, %20, %17
  %indvars.iv.next = add nuw nsw i64 %indvars.iv, 1
  %exitcond.not = icmp eq i64 %indvars.iv.next, %wide.trip.count
  br i1 %exitcond.not, label %._crit_edge, label %11, !llvm.loop !8

._crit_edge:                                      ; preds = %23, %5
  ret void
}